Certificate:
    Data:
        Version: 3 (0x2)
        Serial Number: 6 (0x6)
        Signature Algorithm: sha256WithRSAEncryption
        Issuer: C=BA, ST=Republika Srpska, L=Banja Luka, O=Ognjen Inc., OU=Ogi Security, CN=Ognjen Klincov/emailAddress=ognjenkl@gmail.com
        Validity
            Not Before: May 31 21:17:11 2016 GMT
            Not After : May 26 21:17:11 2036 GMT
        Subject: C=BA, ST=Republika Srpska, O=Ognjen Inc., CN=rsaCertGenerator/emailAddress=ognjenkl@gmail.com
        Subject Public Key Info:
            Public Key Algorithm: rsaEncryption
                Public-Key: (2048 bit)
                Modulus:
                    00:c3:41:4f:22:a6:72:62:15:10:02:26:68:f0:20:
                    d3:6a:3d:14:5c:de:ad:f4:1a:ca:68:b7:c9:7d:1b:
                    f5:b8:62:8d:7f:44:f0:e5:6d:ba:d5:a1:a9:39:0e:
                    ee:5f:31:34:8f:fb:de:0a:3a:1d:38:33:de:87:5c:
                    d1:f9:f7:40:03:f6:32:41:d9:f8:89:8f:95:45:3a:
                    3d:7d:b6:6a:4b:ec:08:d6:67:c1:24:cc:62:96:33:
                    70:4b:4d:5e:33:47:40:b6:74:c4:65:1d:f1:59:91:
                    d7:77:96:38:04:ce:af:92:5e:05:f1:33:c0:8d:0b:
                    b0:c3:f9:0f:50:e9:50:9f:c9:f3:5d:a7:c7:58:cb:
                    51:aa:44:29:cd:3a:56:20:03:bf:59:9e:26:d8:cb:
                    18:88:b8:da:f8:ab:7a:e4:a0:1b:ef:ff:27:3b:49:
                    74:e6:40:94:5b:29:3b:ab:cf:62:3a:ef:42:f1:a8:
                    86:cd:d3:87:67:6b:7a:3a:cc:72:ba:b8:39:d1:29:
                    e5:91:43:ec:5e:f2:6d:ab:93:19:54:7f:76:ad:c0:
                    08:ee:2c:3a:87:0c:04:6b:90:00:14:b1:10:67:42:
                    36:d3:bc:3a:9b:f8:48:9d:ef:e9:40:56:d0:99:b6:
                    a3:9d:bf:5e:30:d9:6d:41:77:e7:68:9c:73:0e:ce:
                    f7:6f
                Exponent: 65537 (0x10001)
        X509v3 extensions:
            X509v3 Basic Constraints: 
                CA:TRUE
            Netscape Comment: 
                OpenSSL Generated Certificate
            X509v3 Subject Key Identifier: 
                00:76:BA:C0:2D:1C:85:60:1C:1C:F5:71:06:F3:55:02:41:21:14:AC
            X509v3 Authority Key Identifier: 
                keyid:0D:DC:B8:A3:D1:78:C6:46:02:6A:21:E7:85:03:F2:CA:10:90:9E:08

    Signature Algorithm: sha256WithRSAEncryption
        3f:d5:1e:21:b9:1c:45:ca:5c:c5:d7:fa:37:0f:f8:4a:6e:62:
        58:18:5d:2d:ad:b7:28:95:39:96:67:a7:d2:f8:8a:a2:3a:44:
        99:58:cf:db:d6:ed:a0:de:c5:57:52:e6:b4:c5:68:f9:1d:70:
        56:9d:5f:4e:00:24:24:b8:32:01:b7:75:78:94:e4:7b:bc:ee:
        63:cd:5b:de:c4:4a:0c:9c:3c:b8:7b:92:17:2f:b7:ba:17:4c:
        fd:3f:a3:b7:91:32:d3:3a:d9:d8:aa:37:24:77:90:58:8d:36:
        78:48:d0:50:c3:fd:d0:04:69:c5:2d:23:5a:0f:df:b3:48:1f:
        ef:9d:cc:ba:00:a9:00:19:5b:17:44:8b:74:e2:76:f9:c1:bc:
        c0:d2:f9:43:ad:7f:59:df:23:e1:87:95:aa:cc:42:d5:c4:79:
        01:41:7e:34:6e:cd:56:53:0f:ea:29:e0:1b:a1:8d:28:4d:72:
        96:ea:ea:ed:01:bc:03:11:e7:e5:c4:3f:6c:4f:1b:d8:c4:e4:
        6a:b3:31:dc:e1:39:29:93:3f:ed:8a:80:bd:cb:29:53:55:0a:
        7b:8b:c4:7d:c3:56:94:5a:e5:00:02:22:c7:9b:b7:b0:5f:a4:
        89:55:3f:55:6b:a6:a4:75:d6:b1:2d:fc:a6:2f:03:66:66:ba:
        da:2e:5a:af:13:39:8b:ef:ce:77:6f:27:cf:ae:0d:17:9f:17:
        4f:3c:ff:8e:00:a0:ef:8b:1a:6f:f0:46:a6:0d:c2:59:80:bd:
        ae:9e:05:91:30:40:37:f6:26:65:eb:f4:da:5a:f1:72:64:0f:
        f0:3d:df:e2:fe:4f:87:dc:a0:41:c6:09:93:c7:fa:ed:a3:4b:
        ed:56:50:24:88:79:e8:97:fa:4e:ca:b7:f6:08:7e:8c:ee:bb:
        87:b1:1d:de:2f:c8:60:0f:6b:e3:62:bb:0e:04:b7:b7:fc:5b:
        8a:cd:76:06:bc:ba:ec:89:a3:d6:2a:6d:72:c1:7e:da:c5:f6:
        27:22:b4:7f:c0:0a:73:41:71:1b:90:2b:25:81:8f:d6:02:16:
        b2:5e:e6:ed:b9:43:0e:22:a3:d1:ec:2f:86:18:9c:61:2a:c0:
        67:b8:2b:85:84:22:5d:2f:57:0a:f1:c8:62:39:89:84:7e:a5:
        95:f5:74:17:95:fb:fe:3d:2c:04:17:b8:7f:f1:54:dd:f2:cd:
        33:ae:bb:2b:98:c5:1d:30:b6:56:1d:e2:54:e5:fb:90:db:c5:
        4c:6b:b9:9d:72:12:ff:d7:ec:c7:85:99:8c:64:58:d2:57:68:
        0f:74:72:88:c8:21:80:09:ff:6e:ba:ae:e9:97:9a:1b:ed:11:
        9e:e2:69:2a:ed:31:51:2b:26:d9:f3:bb:dc:41:2a:d5:c8:bf:
        00:e1:88:99:e8:23:44:c7:d2:ca:ac:09:21:85:42:d5:2d:33:
        d0:09:b3:fd:5c:5b:b6:84:6e:d3:4c:c6:cc:a8:03:5e:94:30:
        05:9c:fe:2d:8f:57:36:0d:37:48:a4:a6:dd:c7:23:0e:48:9e:
        df:34:b5:87:39:4b:e3:84:bc:b4:72:29:21:43:8e:d5:90:00:
        ef:38:ac:bb:92:48:b9:bd:9b:a6:72:c5:04:be:91:14:59:f6:
        f3:d7:28:b2:ed:c0:f3:92:7b:19:47:8d:8b:3f:b5:8f:e2:82:
        85:ab:1d:09:3c:c1:b5:c9:72:d0:e8:4a:cf:ad:82:32:5b:ba:
        7b:7c:c4:27:e8:94:85:31:14:78:f7:c9:32:16:7e:a6:e8:d4:
        16:7c:c3:b5:3f:03:f7:7a:55:02:a8:8a:6c:3c:14:32:0a:10:
        c5:44:c3:2b:45:3e:95:f8:68:35:d8:e1:80:86:d9:6f:7d:f8:
        77:7a:11:1a:dc:8a:a2:61:64:30:57:93:7f:97:1d:b5:67:6b:
        48:78:05:93:fd:07:7a:8a:9b:da:7f:b2:e2:59:8b:ce:6d:b1:
        0d:32:2a:6e:32:5b:e0:99:a3:a4:34:6d:8e:c6:03:96:bb:48:
        64:ad:ec:d8:bf:77:ff:5d:6e:16:f5:0c:c1:10:c8:44:fb:42:
        60:cf:46:e9:0d:a7:7e:01:23:b2:13:f7:49:a4:1f:71:fa:14:
        6c:09:ef:7b:56:e1:5a:21:51:98:61:58:a3:fd:0b:4f:95:fd:
        d5:73:53:96:71:e0:ff:25:f0:48:7b:ce:88:fe:78:98:8d:1b:
        c5:ba:be:39:6d:f5:c2:16:db:9a:be:8f:d1:35:fa:63:0b:0a:
        e2:27:2d:cc:82:b3:2a:8e:e5:e5:28:90:7a:f5:f8:1f:78:9e:
        9a:99:65:47:96:80:22:0a:9f:87:04:ee:74:db:89:46:f6:56:
        59:9a:eb:76:61:56:83:b8:85:9d:9f:14:33:c2:20:2a:f8:1b:
        05:a0:25:06:5f:0c:d8:a3:4c:36:ae:13:09:56:89:1d:ea:50:
        23:44:48:cd:24:e3:5d:39:17:62:ce:5f:ae:14:fa:f6:d4:af:
        60:05:d8:bb:26:1c:a6:92:06:61:67:2f:20:40:2d:08:4c:a5:
        89:aa:d7:9a:51:30:8c:70:31:f2:7d:fd:b8:5b:68:7a:5b:ef:
        04:44:00:6e:f0:28:48:4c:20:af:09:a1:eb:26:c4:9d:91:07:
        22:04:54:c2:df:4f:cf:b3:fb:5f:97:bf:85:96:9a:a9:a3:53:
        48:7c:e8:b1:db:fd:d1:d0:38:51:ea:68:02:17:15:b5
-----BEGIN CERTIFICATE-----
MIIHHDCCAwSgAwIBAgIBBjANBgkqhkiG9w0BAQsFADCBpjELMAkGA1UEBhMCQkEx
GTAXBgNVBAgMEFJlcHVibGlrYSBTcnBza2ExEzARBgNVBAcMCkJhbmphIEx1a2Ex
FDASBgNVBAoMC09nbmplbiBJbmMuMRUwEwYDVQQLDAxPZ2kgU2VjdXJpdHkxFzAV
BgNVBAMMDk9nbmplbiBLbGluY292MSEwHwYJKoZIhvcNAQkBFhJvZ25qZW5rbEBn
bWFpbC5jb20wHhcNMTYwNTMxMjExNzExWhcNMzYwNTI2MjExNzExWjB8MQswCQYD
VQQGEwJCQTEZMBcGA1UECAwQUmVwdWJsaWthIFNycHNrYTEUMBIGA1UECgwLT2du
amVuIEluYy4xGTAXBgNVBAMMEHJzYUNlcnRHZW5lcmF0b3IxITAfBgkqhkiG9w0B
CQEWEm9nbmplbmtsQGdtYWlsLmNvbTCCASIwDQYJKoZIhvcNAQEBBQADggEPADCC
AQoCggEBAMNBTyKmcmIVEAImaPAg02o9FFzerfQaymi3yX0b9bhijX9E8OVtutWh
qTkO7l8xNI/73go6HTgz3odc0fn3QAP2MkHZ+ImPlUU6PX22akvsCNZnwSTMYpYz
cEtNXjNHQLZ0xGUd8VmR13eWOATOr5JeBfEzwI0LsMP5D1DpUJ/J812nx1jLUapE
Kc06ViADv1meJtjLGIi42vireuSgG+//JztJdOZAlFspO6vPYjrvQvGohs3Th2dr
ejrMcrq4OdEp5ZFD7F7ybauTGVR/dq3ACO4sOocMBGuQABSxEGdCNtO8Opv4SJ3v
6UBW0Jm2o52/XjDZbUF352iccw7O928CAwEAAaN+MHwwDAYDVR0TBAUwAwEB/zAs
BglghkgBhvhCAQ0EHxYdT3BlblNTTCBHZW5lcmF0ZWQgQ2VydGlmaWNhdGUwHQYD
VR0OBBYEFAB2usAtHIVgHBz1cQbzVQJBIRSsMB8GA1UdIwQYMBaAFA3cuKPReMZG
Amoh54UD8soQkJ4IMA0GCSqGSIb3DQEBCwUAA4IEAQA/1R4huRxFylzF1/o3D/hK
bmJYGF0trbcolTmWZ6fS+IqiOkSZWM/b1u2g3sVXUua0xWj5HXBWnV9OACQkuDIB
t3V4lOR7vO5jzVvexEoMnDy4e5IXL7e6F0z9P6O3kTLTOtnYqjckd5BYjTZ4SNBQ
w/3QBGnFLSNaD9+zSB/vncy6AKkAGVsXRIt04nb5wbzA0vlDrX9Z3yPhh5WqzELV
xHkBQX40bs1WUw/qKeAboY0oTXKW6urtAbwDEeflxD9sTxvYxORqszHc4Tkpkz/t
ioC9yylTVQp7i8R9w1aUWuUAAiLHm7ewX6SJVT9Va6akddaxLfymLwNmZrraLlqv
EzmL7853byfPrg0XnxdPPP+OAKDvixpv8EamDcJZgL2ungWRMEA39iZl6/TaWvFy
ZA/wPd/i/k+H3KBBxgmTx/rto0vtVlAkiHnol/pOyrf2CH6M7ruHsR3eL8hgD2vj
YrsOBLe3/FuKzXYGvLrsiaPWKm1ywX7axfYnIrR/wApzQXEbkCslgY/WAhayXubt
uUMOIqPR7C+GGJxhKsBnuCuFhCJdL1cK8chiOYmEfqWV9XQXlfv+PSwEF7h/8VTd
8s0zrrsrmMUdMLZWHeJU5fuQ28VMa7mdchL/1+zHhZmMZFjSV2gPdHKIyCGACf9u
uq7pl5ob7RGe4mkq7TFRKybZ87vcQSrVyL8A4YiZ6CNEx9LKrAkhhULVLTPQCbP9
XFu2hG7TTMbMqANelDAFnP4tj1c2DTdIpKbdxyMOSJ7fNLWHOUvjhLy0cikhQ47V
kADvOKy7kki5vZumcsUEvpEUWfbz1yiy7cDzknsZR42LP7WP4oKFqx0JPMG1yXLQ
6ErPrYIyW7p7fMQn6JSFMRR498kyFn6m6NQWfMO1PwP3elUCqIpsPBQyChDFRMMr
RT6V+Gg12OGAhtlvffh3ehEa3IqiYWQwV5N/lx21Z2tIeAWT/Qd6ipvaf7LiWYvO
bbENMipuMlvgmaOkNG2OxgOWu0hkrezYv3f/XW4W9QzBEMhE+0Jgz0bpDad+ASOy
E/dJpB9x+hRsCe97VuFaIVGYYVij/QtPlf3Vc1OWceD/JfBIe86I/niYjRvFur45
bfXCFtuavo/RNfpjCwriJy3MgrMqjuXlKJB69fgfeJ6amWVHloAiCp+HBO5024lG
9lZZmut2YVaDuIWdnxQzwiAq+BsFoCUGXwzYo0w2rhMJVokd6lAjREjNJONdORdi
zl+uFPr21K9gBdi7JhymkgZhZy8gQC0ITKWJqteaUTCMcDHyff24W2h6W+8ERABu
8ChITCCvCaHrJsSdkQciBFTC30/Ps/tfl7+Flpqpo1NIfOix2/3R0DhR6mgCFxW1
-----END CERTIFICATE-----
